target datalayout = "e-m:e-p270:32:32-p271:32:32-p272:64:64-i64:64-i128:128-f80:128-n8:16:32:64-S128"
target triple = "x86_64-pc-linux-gnu"

%"struct.std::_Rb_tree_header" = type { %"struct.std::_Rb_tree_node_base", i64 }
%"struct.std::_Rb_tree_node_base" = type { i32, ptr, ptr, ptr }
%class.PluginManager = type { %"class.std::vector.16", %"class.std::vector.21", %"class.std::set", %class.IOPluginContainer, %class.FilterPluginContainer, %class.RenderPluginContainer, %class.DecoratePluginContainer, %class.EditPluginContainer }
%"class.std::vector.16" = type { %"struct.std::_Vector_base.17" }
%"struct.std::_Vector_base.17" = type { %"struct.std::_Vector_base<MeshLabPlugin *, std::allocator<MeshLabPlugin *>>::_Vector_impl" }
%"struct.std::_Vector_base<MeshLabPlugin *, std::allocator<MeshLabPlugin *>>::_Vector_impl" = type { %"struct.std::_Vector_base<MeshLabPlugin *, std::allocator<MeshLabPlugin *>>::_Vector_impl_data" }
%"struct.std::_Vector_base<MeshLabPlugin *, std::allocator<MeshLabPlugin *>>::_Vector_impl_data" = type { ptr, ptr, ptr }
%"class.std::vector.21" = type { %"struct.std::_Vector_base.22" }
%"struct.std::_Vector_base.22" = type { %"struct.std::_Vector_base<QPluginLoader *, std::allocator<QPluginLoader *>>::_Vector_impl" }
%"struct.std::_Vector_base<QPluginLoader *, std::allocator<QPluginLoader *>>::_Vector_impl" = type { %"struct.std::_Vector_base<QPluginLoader *, std::allocator<QPluginLoader *>>::_Vector_impl_data" }
%"struct.std::_Vector_base<QPluginLoader *, std::allocator<QPluginLoader *>>::_Vector_impl_data" = type { ptr, ptr, ptr }
%"class.std::set" = type { %"class.std::_Rb_tree.26" }
%"class.std::_Rb_tree.26" = type { %"struct.std::_Rb_tree<QString, QString, std::_Identity<QString>, std::less<QString>>::_Rb_tree_impl" }
%"struct.std::_Rb_tree<QString, QString, std::_Identity<QString>, std::less<QString>>::_Rb_tree_impl" = type { %"struct.std::_Rb_tree_key_compare.30", %"struct.std::_Rb_tree_header" }
%"struct.std::_Rb_tree_key_compare.30" = type { %"struct.std::less.31" }
%"struct.std::less.31" = type { i8 }
%class.IOPluginContainer = type { %"class.std::vector.33", %class.QMap, %class.QMap, %class.QMap, %class.QMap, %class.QMap, %class.QMap }
%"class.std::vector.33" = type { %"struct.std::_Vector_base.34" }
%"struct.std::_Vector_base.34" = type { %"struct.std::_Vector_base<IOPlugin *, std::allocator<IOPlugin *>>::_Vector_impl" }
%"struct.std::_Vector_base<IOPlugin *, std::allocator<IOPlugin *>>::_Vector_impl" = type { %"struct.std::_Vector_base<IOPlugin *, std::allocator<IOPlugin *>>::_Vector_impl_data" }
%"struct.std::_Vector_base<IOPlugin *, std::allocator<IOPlugin *>>::_Vector_impl_data" = type { ptr, ptr, ptr }
%class.QMap = type { ptr }
%class.FilterPluginContainer = type { %"class.std::vector.38", %class.QMap.43 }
%"class.std::vector.38" = type { %"struct.std::_Vector_base.39" }
%"struct.std::_Vector_base.39" = type { %"struct.std::_Vector_base<FilterPlugin *, std::allocator<FilterPlugin *>>::_Vector_impl" }
%"struct.std::_Vector_base<FilterPlugin *, std::allocator<FilterPlugin *>>::_Vector_impl" = type { %"struct.std::_Vector_base<FilterPlugin *, std::allocator<FilterPlugin *>>::_Vector_impl_data" }
%"struct.std::_Vector_base<FilterPlugin *, std::allocator<FilterPlugin *>>::_Vector_impl_data" = type { ptr, ptr, ptr }
%class.QMap.43 = type { ptr }
%class.RenderPluginContainer = type { %"class.std::vector.44" }
%"class.std::vector.44" = type { %"struct.std::_Vector_base.45" }
%"struct.std::_Vector_base.45" = type { %"struct.std::_Vector_base<RenderPlugin *, std::allocator<RenderPlugin *>>::_Vector_impl" }
%"struct.std::_Vector_base<RenderPlugin *, std::allocator<RenderPlugin *>>::_Vector_impl" = type { %"struct.std::_Vector_base<RenderPlugin *, std::allocator<RenderPlugin *>>::_Vector_impl_data" }
%"struct.std::_Vector_base<RenderPlugin *, std::allocator<RenderPlugin *>>::_Vector_impl_data" = type { ptr, ptr, ptr }
%class.DecoratePluginContainer = type { %"class.std::vector.49" }
%"class.std::vector.49" = type { %"struct.std::_Vector_base.50" }
%"struct.std::_Vector_base.50" = type { %"struct.std::_Vector_base<DecoratePlugin *, std::allocator<DecoratePlugin *>>::_Vector_impl" }
%"struct.std::_Vector_base<DecoratePlugin *, std::allocator<DecoratePlugin *>>::_Vector_impl" = type { %"struct.std::_Vector_base<DecoratePlugin *, std::allocator<DecoratePlugin *>>::_Vector_impl_data" }
%"struct.std::_Vector_base<DecoratePlugin *, std::allocator<DecoratePlugin *>>::_Vector_impl_data" = type { ptr, ptr, ptr }
%class.EditPluginContainer = type { %"class.std::vector.54" }
%"class.std::vector.54" = type { %"struct.std::_Vector_base.55" }
%"struct.std::_Vector_base.55" = type { %"struct.std::_Vector_base<EditPlugin *, std::allocator<EditPlugin *>>::_Vector_impl" }
%"struct.std::_Vector_base<EditPlugin *, std::allocator<EditPlugin *>>::_Vector_impl" = type { %"struct.std::_Vector_base<EditPlugin *, std::allocator<EditPlugin *>>::_Vector_impl_data" }
%"struct.std::_Vector_base<EditPlugin *, std::allocator<EditPlugin *>>::_Vector_impl_data" = type { ptr, ptr, ptr }

; Function Attrs: mustprogress nounwind uwtable
define linkonce_odr noundef i64 @_ZNKSt6vectorIP13MeshLabPluginSaIS1_EE4sizeEv(ptr noundef nonnull align 8 dereferenceable(24) %0) #4 comdat align 2 {
  %2 = alloca ptr, align 8
  store ptr %0, ptr %2, align 8
  %3 = load ptr, ptr %2, align 8
  %4 = getelementptr inbounds %"struct.std::_Vector_base.17", ptr %3, i32 0, i32 0
  %5 = getelementptr inbounds %"struct.std::_Vector_base<MeshLabPlugin *, std::allocator<MeshLabPlugin *>>::_Vector_impl_data", ptr %4, i32 0, i32 1
  %6 = load ptr, ptr %5, align 8
  %7 = getelementptr inbounds %"struct.std::_Vector_base.17", ptr %3, i32 0, i32 0
  %8 = getelementptr inbounds %"struct.std::_Vector_base<MeshLabPlugin *, std::allocator<MeshLabPlugin *>>::_Vector_impl_data", ptr %7, i32 0, i32 0
  %9 = load ptr, ptr %8, align 8
  %10 = ptrtoint ptr %6 to i64
  %11 = ptrtoint ptr %9 to i64
  %12 = sub i64 %10, %11
  %13 = sdiv exact i64 %12, 8
  ret i64 %13
}

; Function Attrs: mustprogress nounwind uwtable
define noundef i32 @_ZNK13PluginManager4sizeEv(ptr noundef nonnull align 8 dereferenceable(272) %0) #4 align 2 {
  %2 = alloca ptr, align 8
  store ptr %0, ptr %2, align 8
  %3 = load ptr, ptr %2, align 8
  %4 = getelementptr inbounds %class.PluginManager, ptr %3, i32 0, i32 0
  %5 = call noundef i64 @_ZNKSt6vectorIP13MeshLabPluginSaIS1_EE4sizeEv(ptr noundef nonnull align 8 dereferenceable(24) %4) #3
  %6 = trunc i64 %5 to i32
  ret i32 %6
}